Certificate:
    Data:
        Version: 3 (0x2)
        Serial Number: 14576336887081713369 (0xca498d2b88edbed9)
    Signature Algorithm: sha1WithRSAEncryption
        Issuer: CN=example.com CA
        Validity
            Not Before: Dec  3 05:38:51 2015 GMT
            Not After : Sep  1 05:38:51 2025 GMT
        Subject: CN=example.com CA
        Subject Public Key Info:
            Public Key Algorithm: rsaEncryption
                Public-Key: (2048 bit)
                Modulus:
                    00:be:9d:47:79:ac:ee:8b:5f:9d:e7:b8:5f:e6:39:
                    62:4f:cf:d7:c8:60:7b:cf:ed:cb:92:97:df:df:12:
                    51:11:27:26:e1:bd:1c:f1:8d:2e:5a:1b:0e:84:1e:
                    ef:a2:01:67:21:1d:8c:73:b9:91:35:0c:74:4c:56:
                    c6:cf:cd:a3:d5:c1:41:19:c2:58:ca:65:f9:0d:d4:
                    b2:dc:47:2a:b0:25:3c:3f:6a:c6:9e:cc:77:72:36:
                    9b:ed:62:1b:26:ef:4f:db:22:d0:fa:cb:7f:f2:8a:
                    70:d7:81:25:69:64:66:d8:b7:7d:d9:3b:1d:5f:f4:
                    dc:2f:54:fc:bc:14:08:20:fd:d6:48:7c:ce:5d:ae:
                    95:fe:e5:4e:34:89:c4:1d:f0:81:ee:89:15:e4:70:
                    0a:a1:eb:f8:7e:3b:cc:91:61:93:7c:aa:36:a8:fd:
                    95:be:48:ec:b0:43:5e:4d:80:4a:e6:b2:e9:19:c8:
                    01:dd:f1:d6:46:67:d5:18:77:d2:e7:a5:2f:12:81:
                    72:4b:6a:8d:66:4f:47:11:06:0e:d4:30:3f:68:21:
                    f8:a8:42:21:f2:ce:bf:6c:e4:54:44:20:f1:ca:ac:
                    84:19:7d:4e:38:48:0e:38:3c:b3:1a:e0:36:d7:ad:
                    01:63:4e:d7:d3:f2:4d:e3:2f:d1:1f:5c:c6:08:18:
                    31:d5
                Exponent: 65537 (0x10001)
        X509v3 extensions:
            X509v3 Basic Constraints: critical
                CA:TRUE
            X509v3 Subject Key Identifier: 
                7F:A2:B0:20:FB:AB:C2:DF:19:95:9A:EE:09:84:BA:9D:D0:D0:08:3D
            X509v3 Key Usage: critical
                Certificate Sign, CRL Sign
    Signature Algorithm: sha1WithRSAEncryption
         66:89:cd:7e:47:ac:b1:8d:ec:1c:69:f8:83:61:d5:1c:68:70:
         3f:0d:7e:49:f3:41:b5:6d:3e:dc:13:96:83:70:32:b7:bb:bf:
         6d:1f:b1:37:ea:ef:df:0d:3f:1a:28:18:72:2e:f2:a7:43:2f:
         11:e3:41:6b:9e:de:9d:29:6b:39:32:fe:ec:29:e3:73:7c:dd:
         9c:74:d0:e9:ab:80:8b:d1:f7:d3:4e:cd:a5:1b:64:30:80:39:
         57:38:fd:04:3c:c8:20:d0:27:ab:a3:99:b0:01:56:46:6f:f4:
         4e:9c:1f:8d:f2:5e:77:41:b8:37:40:2b:e5:80:d5:6d:38:ac:
         6e:20:76:cd:dd:07:37:8a:47:6f:09:7d:c4:b2:03:21:f8:67:
         8f:db:fc:c9:5a:b2:88:34:ae:aa:ae:22:c2:99:0e:bc:92:b5:
         ca:c7:63:e4:75:08:86:7e:c0:38:7b:ac:a9:79:b7:9f:e2:c4:
         55:1f:32:69:f0:43:bd:d4:8c:1e:aa:58:d8:9b:f7:11:0b:ac:
         cc:b2:dd:31:94:8e:49:95:83:99:2d:72:c8:00:f8:33:79:c4:
         e7:1a:69:72:47:9b:b7:fa:8e:e9:fb:0e:27:fa:7a:c7:2d:ff:
         52:39:ae:6c:a9:d9:de:af:51:52:cc:29:fd:d4:95:a1:6b:d0:
         07:4b:b5:b8
-----BEGIN CERTIFICATE-----
MIIC9zCCAd+gAwIBAgIJAMpJjSuI7b7ZMA0GCSqGSIb3DQEBBQUAMBkxFzAVBgNV
BAMMDmV4YW1wbGUuY29tIENBMB4XDTE1MTIwMzA1Mzg1MVoXDTI1MDkwMTA1Mzg1
MVowGTEXMBUGA1UEAwwOZXhhbXBsZS5jb20gQ0EwggEiMA0GCSqGSIb3DQEBAQUA
A4IBDwAwggEKAoIBAQC+nUd5rO6LX53nuF/mOWJPz9fIYHvP7cuSl9/fElERJybh
vRzxjS5aGw6EHu+iAWchHYxzuZE1DHRMVsbPzaPVwUEZwljKZfkN1LLcRyqwJTw/
asaezHdyNpvtYhsm70/bItD6y3/yinDXgSVpZGbYt33ZOx1f9NwvVPy8FAgg/dZI
fM5drpX+5U40icQd8IHuiRXkcAqh6/h+O8yRYZN8qjao/ZW+SOywQ15NgErmsukZ
yAHd8dZGZ9UYd9LnpS8SgXJLao1mT0cRBg7UMD9oIfioQiHyzr9s5FREIPHKrIQZ
fU44SA44PLMa4DbXrQFjTtfT8k3jL9EfXMYIGDHVAgMBAAGjQjBAMA8GA1UdEwEB
/wQFMAMBAf8wHQYDVR0OBBYEFH+isCD7q8LfGZWa7gmEup3Q0Ag9MA4GA1UdDwEB
/wQEAwIBBjANBgkqhkiG9w0BAQUFAAOCAQEAZonNfkessY3sHGn4g2HVHGhwPw1+
SfNBtW0+3BOWg3Ayt7u/bR+xN+rv3w0/GigYci7yp0MvEeNBa57enSlrOTL+7Cnj
c3zdnHTQ6auAi9H3007NpRtkMIA5Vzj9BDzIINAnq6OZsAFWRm/0TpwfjfJed0G4
N0Ar5YDVbTisbiB2zd0HN4pHbwl9xLIDIfhnj9v8yVqyiDSuqq4iwpkOvJK1ysdj
5HUIhn7AOHusqXm3n+LEVR8yafBDvdSMHqpY2Jv3EQuszLLdMZSOSZWDmS1yyAD4
M3nE5xppckebt/qO6fsOJ/p6xy3/UjmubKnZ3q9RUswp/dSVoWvQB0u1uA==
-----END CERTIFICATE-----
