Certificate:
    Data:
        Version: 3 (0x2)
        Serial Number: 1 (0x1)
    Signature Algorithm: sha256WithRSAEncryption
        Issuer: CN=example.com CA
        Validity
            Not Before: Dec  3 05:38:51 2015 GMT
            Not After : Nov  9 05:38:51 2115 GMT
        Subject: C=KR, ST=Seoul, L=Gangnam Street, O=Example Server, CN=127.0.0.1
        Subject Public Key Info:
            Public Key Algorithm: rsaEncryption
                Public-Key: (2048 bit)
                Modulus:
                    00:ce:eb:0d:5c:0b:1f:5b:6e:77:72:2e:b5:09:ad:
                    14:d3:46:ec:1a:1b:8b:d0:fa:75:49:30:58:11:23:
                    04:78:8b:72:7c:a0:81:94:7a:78:c8:d5:18:98:5f:
                    dc:71:7a:89:6c:af:ac:0d:1c:9c:01:23:86:1c:b9:
                    d4:b0:35:d1:02:f9:20:a4:5f:dd:7e:49:8d:3a:57:
                    96:bd:51:37:c7:69:ec:8e:ca:83:0f:22:77:55:a6:
                    f1:7c:52:d0:7d:a7:fd:28:02:74:76:2b:ef:50:c4:
                    6d:ed:89:9c:bd:2b:68:2c:20:0d:3f:c7:93:f6:10:
                    76:3f:36:f4:e7:4c:e0:80:81:8f:ff:ad:b2:0d:4a:
                    f3:c0:1b:08:8b:de:71:76:31:c7:ef:ab:20:36:13:
                    3f:5d:95:d0:73:08:cd:4b:cb:e5:95:77:0f:65:c9:
                    b7:65:a5:61:cb:a4:db:45:11:6c:ef:95:d4:5b:8a:
                    24:8b:f8:59:a0:3b:4f:b8:eb:2d:6a:d1:70:54:e0:
                    e5:2d:75:d5:ec:a2:e0:dc:57:f7:c0:02:a7:7d:68:
                    92:5f:8e:dc:c9:53:d7:a0:73:c6:f9:ac:7a:80:70:
                    38:ef:75:9b:4f:27:ff:8e:5b:a9:ac:03:45:ff:ec:
                    34:7e:40:04:75:ba:14:0b:1c:1c:e2:ab:9a:57:58:
                    83:a5
                Exponent: 65537 (0x10001)
        X509v3 extensions:
            X509v3 Basic Constraints: critical
                CA:FALSE
            X509v3 Subject Key Identifier: 
                9E:4C:FD:5F:DD:B6:54:53:B6:86:83:5A:9B:1C:6E:2F:D6:3B:18:BE
            X509v3 Authority Key Identifier: 
                keyid:7F:A2:B0:20:FB:AB:C2:DF:19:95:9A:EE:09:84:BA:9D:D0:D0:08:3D

            X509v3 Extended Key Usage: 
                TLS Web Server Authentication, TLS Web Client Authentication
            X509v3 Subject Alternative Name: 
                DNS:example.com, DNS:*.example.com, IP Address:127.0.0.1
    Signature Algorithm: sha256WithRSAEncryption
         9a:a6:2b:ba:4d:78:4a:2b:e7:dd:26:c5:90:e6:51:84:98:1c:
         c8:ad:13:9d:19:27:fd:bf:95:a4:30:25:0d:ea:4a:33:f6:a6:
         59:6e:79:43:d8:a6:d1:01:af:b6:d6:a3:2c:49:46:ce:f4:a6:
         22:71:31:ea:9f:94:bc:8c:f5:07:9e:bd:48:1f:4d:9a:8a:78:
         75:8c:8b:b3:ba:8e:81:a4:8f:23:07:86:46:e3:3e:d3:9a:bb:
         27:ec:ea:5a:bd:73:be:63:96:f1:4c:99:61:24:21:42:99:13:
         ab:91:0f:0b:14:85:60:db:c9:73:21:41:c0:d1:80:13:1d:42:
         c4:60:7d:e2:a6:21:60:72:be:c2:f0:0e:09:b8:60:1f:3f:42:
         02:d7:52:d6:95:a3:8c:4c:3b:44:75:82:0d:d8:ab:61:43:db:
         ec:a3:0f:af:a3:b1:a0:19:a7:42:3c:53:2c:00:80:25:f4:cb:
         79:8b:57:a8:07:cd:23:08:45:78:26:2c:99:d5:08:aa:19:7e:
         38:ef:6f:ff:bf:14:dd:15:52:16:31:3a:3c:6e:3e:1f:e2:4b:
         eb:79:48:e7:c4:d0:1b:ce:3d:67:2a:3e:5a:41:68:35:82:a2:
         b9:b6:c2:39:87:8c:b3:b0:f9:a2:c7:07:d0:b3:e0:aa:b8:98:
         7f:79:a8:ba
-----BEGIN CERTIFICATE-----
MIIDlzCCAn+gAwIBAgIBATANBgkqhkiG9w0BAQsFADAZMRcwFQYDVQQDDA5leGFt
cGxlLmNvbSBDQTAgFw0xNTEyMDMwNTM4NTFaGA8yMTE1MTEwOTA1Mzg1MVowYzEL
MAkGA1UEBhMCS1IxDjAMBgNVBAgMBVNlb3VsMRcwFQYDVQQHDA5HYW5nbmFtIFN0
cmVldDEXMBUGA1UECgwORXhhbXBsZSBTZXJ2ZXIxEjAQBgNVBAMMCTEyNy4wLjAu
MTCCASIwDQYJKoZIhvcNAQEBBQADggEPADCCAQoCggEBAM7rDVwLH1tud3IutQmt
FNNG7Bobi9D6dUkwWBEjBHiLcnyggZR6eMjVGJhf3HF6iWyvrA0cnAEjhhy51LA1
0QL5IKRf3X5JjTpXlr1RN8dp7I7Kgw8id1Wm8XxS0H2n/SgCdHYr71DEbe2JnL0r
aCwgDT/Hk/YQdj829OdM4ICBj/+tsg1K88AbCIvecXYxx++rIDYTP12V0HMIzUvL
5ZV3D2XJt2WlYcuk20URbO+V1FuKJIv4WaA7T7jrLWrRcFTg5S111eyi4NxX98AC
p31okl+O3MlT16BzxvmseoBwOO91m08n/45bqawDRf/sNH5ABHW6FAscHOKrmldY
g6UCAwEAAaOBnTCBmjAMBgNVHRMBAf8EAjAAMB0GA1UdDgQWBBSeTP1f3bZUU7aG
g1qbHG4v1jsYvjAfBgNVHSMEGDAWgBR/orAg+6vC3xmVmu4JhLqd0NAIPTAdBgNV
HSUEFjAUBggrBgEFBQcDAQYIKwYBBQUHAwIwKwYDVR0RBCQwIoILZXhhbXBsZS5j
b22CDSouZXhhbXBsZS5jb22HBH8AAAEwDQYJKoZIhvcNAQELBQADggEBAJqmK7pN
eEor590mxZDmUYSYHMitE50ZJ/2/laQwJQ3qSjP2pllueUPYptEBr7bWoyxJRs70
piJxMeqflLyM9QeevUgfTZqKeHWMi7O6joGkjyMHhkbjPtOauyfs6lq9c75jlvFM
mWEkIUKZE6uRDwsUhWDbyXMhQcDRgBMdQsRgfeKmIWByvsLwDgm4YB8/QgLXUtaV
o4xMO0R1gg3Yq2FD2+yjD6+jsaAZp0I8UywAgCX0y3mLV6gHzSMIRXgmLJnVCKoZ
fjjvb/+/FN0VUhYxOjxuPh/iS+t5SOfE0BvOPWcqPlpBaDWCorm2wjmHjLOw+aLH
B9Cz4Kq4mH95qLo=
-----END CERTIFICATE-----
